target datalayout = "e-m:e-p270:32:32-p271:32:32-p272:64:64-i64:64-i128:128-f80:128-n8:16:32:64-S128"
target triple = "x86_64-pc-linux-gnu"

; Function Attrs: inlinehint mustprogress nounwind uwtable
define internal noundef double @_ZN2cvL9normL2SqrIfdEET0_PKT_S4_i(ptr noundef %0, ptr noundef %1, i32 noundef %2) #3 {
  %4 = alloca ptr, align 8
  %5 = alloca ptr, align 8
  %6 = alloca i32, align 4
  %7 = alloca double, align 8
  %8 = alloca i32, align 4
  %9 = alloca double, align 8
  store ptr %0, ptr %4, align 8, !tbaa !15
  store ptr %1, ptr %5, align 8, !tbaa !15
  store i32 %2, ptr %6, align 4, !tbaa !3
  call void @llvm.lifetime.start.p0(i64 8, ptr %7) #15
  store double 0.000000e+00, ptr %7, align 8, !tbaa !47
  call void @llvm.lifetime.start.p0(i64 4, ptr %8) #15
  store i32 0, ptr %8, align 4, !tbaa !3
  br label %10

10:                                               ; preds = %31, %3
  %11 = load i32, ptr %8, align 4, !tbaa !3
  %12 = load i32, ptr %6, align 4, !tbaa !3
  %13 = icmp slt i32 %11, %12
  br i1 %13, label %14, label %34

14:                                               ; preds = %10
  call void @llvm.lifetime.start.p0(i64 8, ptr %9) #15
  %15 = load ptr, ptr %4, align 8, !tbaa !15
  %16 = load i32, ptr %8, align 4, !tbaa !3
  %17 = sext i32 %16 to i64
  %18 = getelementptr inbounds float, ptr %15, i64 %17
  %19 = load float, ptr %18, align 4, !tbaa !30
  %20 = load ptr, ptr %5, align 8, !tbaa !15
  %21 = load i32, ptr %8, align 4, !tbaa !3
  %22 = sext i32 %21 to i64
  %23 = getelementptr inbounds float, ptr %20, i64 %22
  %24 = load float, ptr %23, align 4, !tbaa !30
  %25 = fsub float %19, %24
  %26 = fpext float %25 to double
  store double %26, ptr %9, align 8, !tbaa !47
  %27 = load double, ptr %9, align 8, !tbaa !47
  %28 = load double, ptr %9, align 8, !tbaa !47
  %29 = load double, ptr %7, align 8, !tbaa !47
  %30 = call double @llvm.fmuladd.f64(double %27, double %28, double %29)
  store double %30, ptr %7, align 8, !tbaa !47
  call void @llvm.lifetime.end.p0(i64 8, ptr %9) #15
  br label %31

31:                                               ; preds = %14
  %32 = load i32, ptr %8, align 4, !tbaa !3
  %33 = add nsw i32 %32, 1
  store i32 %33, ptr %8, align 4, !tbaa !3
  br label %10, !llvm.loop !205

34:                                               ; preds = %10
  %35 = load double, ptr %7, align 8, !tbaa !47
  call void @llvm.lifetime.end.p0(i64 4, ptr %8) #15
  call void @llvm.lifetime.end.p0(i64 8, ptr %7) #15
  ret double %35
}

; Function Attrs: mustprogress uwtable
define linkonce_odr hidden noundef i32 @_ZN2cv11normDiffL2_IfdEEiPKT_S3_PKhPT0_ii(ptr noundef %0, ptr noundef %1, ptr noundef %2, ptr noundef %3, i32 noundef %4, i32 noundef %5) #0 comdat {
  %7 = alloca ptr, align 8
  %8 = alloca ptr, align 8
  %9 = alloca ptr, align 8
  %10 = alloca ptr, align 8
  %11 = alloca i32, align 4
  %12 = alloca i32, align 4
  %13 = alloca double, align 8
  %14 = alloca i32, align 4
  %15 = alloca i32, align 4
  %16 = alloca i32, align 4
  %17 = alloca double, align 8
  store ptr %0, ptr %7, align 8, !tbaa !15
  store ptr %1, ptr %8, align 8, !tbaa !15
  store ptr %2, ptr %9, align 8, !tbaa !9
  store ptr %3, ptr %10, align 8, !tbaa !17
  store i32 %4, ptr %11, align 4, !tbaa !3
  store i32 %5, ptr %12, align 4, !tbaa !3
  call void @llvm.lifetime.start.p0(i64 8, ptr %13) #15
  %18 = load ptr, ptr %10, align 8, !tbaa !17
  %19 = load double, ptr %18, align 8, !tbaa !47
  store double %19, ptr %13, align 8, !tbaa !47
  %20 = load ptr, ptr %9, align 8, !tbaa !9
  %21 = icmp ne ptr %20, null
  br i1 %21, label %31, label %22

22:                                               ; preds = %6
  %23 = load ptr, ptr %7, align 8, !tbaa !15
  %24 = load ptr, ptr %8, align 8, !tbaa !15
  %25 = load i32, ptr %11, align 4, !tbaa !3
  %26 = load i32, ptr %12, align 4, !tbaa !3
  %27 = mul nsw i32 %25, %26
  %28 = call noundef double @_ZN2cvL9normL2SqrIfdEET0_PKT_S4_i(ptr noundef %23, ptr noundef %24, i32 noundef %27)
  %29 = load double, ptr %13, align 8, !tbaa !47
  %30 = fadd double %29, %28
  store double %30, ptr %13, align 8, !tbaa !47
  br label %84

31:                                               ; preds = %6
  call void @llvm.lifetime.start.p0(i64 4, ptr %14) #15
  store i32 0, ptr %14, align 4, !tbaa !3
  br label %32

32:                                               ; preds = %72, %31
  %33 = load i32, ptr %14, align 4, !tbaa !3
  %34 = load i32, ptr %11, align 4, !tbaa !3
  %35 = icmp slt i32 %33, %34
  br i1 %35, label %37, label %36

36:                                               ; preds = %32
  store i32 2, ptr %15, align 4
  call void @llvm.lifetime.end.p0(i64 4, ptr %14) #15
  br label %83

37:                                               ; preds = %32
  %38 = load ptr, ptr %9, align 8, !tbaa !9
  %39 = load i32, ptr %14, align 4, !tbaa !3
  %40 = sext i32 %39 to i64
  %41 = getelementptr inbounds i8, ptr %38, i64 %40
  %42 = load i8, ptr %41, align 1, !tbaa !24
  %43 = icmp ne i8 %42, 0
  br i1 %43, label %44, label %71

44:                                               ; preds = %37
  call void @llvm.lifetime.start.p0(i64 4, ptr %16) #15
  store i32 0, ptr %16, align 4, !tbaa !3
  br label %45

45:                                               ; preds = %67, %44
  %46 = load i32, ptr %16, align 4, !tbaa !3
  %47 = load i32, ptr %12, align 4, !tbaa !3
  %48 = icmp slt i32 %46, %47
  br i1 %48, label %50, label %49

49:                                               ; preds = %45
  store i32 5, ptr %15, align 4
  call void @llvm.lifetime.end.p0(i64 4, ptr %16) #15
  br label %70

50:                                               ; preds = %45
  call void @llvm.lifetime.start.p0(i64 8, ptr %17) #15
  %51 = load ptr, ptr %7, align 8, !tbaa !15
  %52 = load i32, ptr %16, align 4, !tbaa !3
  %53 = sext i32 %52 to i64
  %54 = getelementptr inbounds float, ptr %51, i64 %53
  %55 = load float, ptr %54, align 4, !tbaa !30
  %56 = load ptr, ptr %8, align 8, !tbaa !15
  %57 = load i32, ptr %16, align 4, !tbaa !3
  %58 = sext i32 %57 to i64
  %59 = getelementptr inbounds float, ptr %56, i64 %58
  %60 = load float, ptr %59, align 4, !tbaa !30
  %61 = fsub float %55, %60
  %62 = fpext float %61 to double
  store double %62, ptr %17, align 8, !tbaa !47
  %63 = load double, ptr %17, align 8, !tbaa !47
  %64 = load double, ptr %17, align 8, !tbaa !47
  %65 = load double, ptr %13, align 8, !tbaa !47
  %66 = call double @llvm.fmuladd.f64(double %63, double %64, double %65)
  store double %66, ptr %13, align 8, !tbaa !47
  call void @llvm.lifetime.end.p0(i64 8, ptr %17) #15
  br label %67

67:                                               ; preds = %50
  %68 = load i32, ptr %16, align 4, !tbaa !3
  %69 = add nsw i32 %68, 1
  store i32 %69, ptr %16, align 4, !tbaa !3
  br label %45, !llvm.loop !203

70:                                               ; preds = %49
  br label %71

71:                                               ; preds = %70, %37
  br label %72

72:                                               ; preds = %71
  %73 = load i32, ptr %14, align 4, !tbaa !3
  %74 = add nsw i32 %73, 1
  store i32 %74, ptr %14, align 4, !tbaa !3
  %75 = load i32, ptr %12, align 4, !tbaa !3
  %76 = load ptr, ptr %7, align 8, !tbaa !15
  %77 = sext i32 %75 to i64
  %78 = getelementptr inbounds float, ptr %76, i64 %77
  store ptr %78, ptr %7, align 8, !tbaa !15
  %79 = load i32, ptr %12, align 4, !tbaa !3
  %80 = load ptr, ptr %8, align 8, !tbaa !15
  %81 = sext i32 %79 to i64
  %82 = getelementptr inbounds float, ptr %80, i64 %81
  store ptr %82, ptr %8, align 8, !tbaa !15
  br label %32, !llvm.loop !204

83:                                               ; preds = %36
  br label %84

84:                                               ; preds = %83, %22
  %85 = load double, ptr %13, align 8, !tbaa !47
  %86 = load ptr, ptr %10, align 8, !tbaa !17
  store double %85, ptr %86, align 8, !tbaa !47
  store i32 1, ptr %15, align 4
  call void @llvm.lifetime.end.p0(i64 8, ptr %13) #15
  ret i32 0
}

; Function Attrs: mustprogress uwtable
define internal noundef i32 @_ZN2cvL14normDiffL2_32fEPKfS1_PKhPdii(ptr noundef %0, ptr noundef %1, ptr noundef %2, ptr noundef %3, i32 noundef %4, i32 noundef %5) #0 {
  %7 = alloca ptr, align 8
  %8 = alloca ptr, align 8
  %9 = alloca ptr, align 8
  %10 = alloca ptr, align 8
  %11 = alloca i32, align 4
  %12 = alloca i32, align 4
  store ptr %0, ptr %7, align 8, !tbaa !15
  store ptr %1, ptr %8, align 8, !tbaa !15
  store ptr %2, ptr %9, align 8, !tbaa !9
  store ptr %3, ptr %10, align 8, !tbaa !17
  store i32 %4, ptr %11, align 4, !tbaa !3
  store i32 %5, ptr %12, align 4, !tbaa !3
  %13 = load ptr, ptr %7, align 8, !tbaa !15
  %14 = load ptr, ptr %8, align 8, !tbaa !15
  %15 = load ptr, ptr %9, align 8, !tbaa !9
  %16 = load ptr, ptr %10, align 8, !tbaa !17
  %17 = load i32, ptr %11, align 4, !tbaa !3
  %18 = load i32, ptr %12, align 4, !tbaa !3
  %19 = call noundef i32 @_ZN2cv11normDiffL2_IfdEEiPKT_S3_PKhPT0_ii(ptr noundef %13, ptr noundef %14, ptr noundef %15, ptr noundef %16, i32 noundef %17, i32 noundef %18)
  ret i32 %19
}